target datalayout = "e-m:e-p270:32:32-p271:32:32-p272:64:64-i64:64-i128:128-f80:128-n8:16:32:64-S128"
target triple = "x86_64-pc-linux-gnu"

%struct.node_record = type { ptr, ptr, i16, i64, i64, ptr, ptr, ptr, i16, ptr, i16, i16, i32, i32, i64, ptr, i16, i16, ptr, ptr, ptr, ptr, ptr, i64, i64, ptr, ptr, ptr, ptr, i32, ptr, ptr, i64, i64, i32, ptr, i64, ptr, i32, i16, ptr, ptr, i32, ptr, i32, i8, ptr, i32, i16, i16, ptr, i16, i64, i16, i64, ptr, i64, i32, i16, i64, i16, ptr, i16, i64, ptr, i64, i16, i32, i16, ptr, ptr, ptr, i16, i32, i16, i16, i32, ptr, i16, i32 }
%struct.agent_arg_t = type { i32, i16, i32, i8, ptr, ptr, i16, i32, ptr, i16 }
%struct.shutdown_msg = type { i16 }

@node_record_table_ptr = external global ptr, align 8
@.str.111 = private unnamed_addr constant [11 x i8] c"node_mgr.c\00", align 1
@__func__.msg_to_slurmd = private unnamed_addr constant [14 x i8] c"msg_to_slurmd\00", align 1
@.str.112 = private unnamed_addr constant [27 x i8] c"Spawning agent msg_type=%s\00", align 1

; Function Attrs: nounwind uwtable
define dso_local void @msg_to_slurmd(i32 noundef %0) #0 {
  %2 = alloca i32, align 4
  %3 = alloca i32, align 4
  %4 = alloca ptr, align 8
  %5 = alloca ptr, align 8
  %6 = alloca ptr, align 8
  store i32 %0, ptr %2, align 4
  call void @llvm.lifetime.start.p0(i64 4, ptr %3) #10
  call void @llvm.lifetime.start.p0(i64 8, ptr %4) #10
  call void @llvm.lifetime.start.p0(i64 8, ptr %5) #10
  call void @llvm.lifetime.start.p0(i64 8, ptr %6) #10
  %7 = call ptr @slurm_xcalloc(i64 noundef 1, i64 noundef 56, i1 noundef zeroext true, i1 noundef zeroext false, ptr noundef @.str.111, i32 noundef 4251, ptr noundef @__func__.msg_to_slurmd)
  store ptr %7, ptr %5, align 8
  %8 = load i32, ptr %2, align 4
  %9 = load ptr, ptr %5, align 8
  %10 = getelementptr inbounds nuw %struct.agent_arg_t, ptr %9, i32 0, i32 7
  store i32 %8, ptr %10, align 4
  %11 = load ptr, ptr %5, align 8
  %12 = getelementptr inbounds nuw %struct.agent_arg_t, ptr %11, i32 0, i32 1
  store i16 0, ptr %12, align 4
  %13 = call ptr @hostlist_create(ptr noundef null)
  %14 = load ptr, ptr %5, align 8
  %15 = getelementptr inbounds nuw %struct.agent_arg_t, ptr %14, i32 0, i32 5
  store ptr %13, ptr %15, align 8
  %16 = load i32, ptr %2, align 4
  %17 = icmp eq i32 %16, 1005
  br i1 %17, label %18, label %25

18:                                               ; preds = %1
  %19 = call ptr @slurm_xcalloc(i64 noundef 1, i64 noundef 2, i1 noundef zeroext true, i1 noundef zeroext false, ptr noundef @.str.111, i32 noundef 4256, ptr noundef @__func__.msg_to_slurmd)
  store ptr %19, ptr %4, align 8
  %20 = load ptr, ptr %4, align 8
  %21 = getelementptr inbounds nuw %struct.shutdown_msg, ptr %20, i32 0, i32 0
  store i16 0, ptr %21, align 2
  %22 = load ptr, ptr %4, align 8
  %23 = load ptr, ptr %5, align 8
  %24 = getelementptr inbounds nuw %struct.agent_arg_t, ptr %23, i32 0, i32 8
  store ptr %22, ptr %24, align 8
  br label %25

25:                                               ; preds = %18, %1
  %26 = load ptr, ptr %5, align 8
  %27 = getelementptr inbounds nuw %struct.agent_arg_t, ptr %26, i32 0, i32 6
  store i16 11008, ptr %27, align 8
  store i32 0, ptr %3, align 4
  br label %28

28:                                               ; preds = %100, %25
  %29 = call ptr @next_node(ptr noundef %3)
  store ptr %29, ptr %6, align 8
  %30 = icmp ne ptr %29, null
  br i1 %30, label %31, label %103

31:                                               ; preds = %28
  %32 = load ptr, ptr %6, align 8
  %33 = getelementptr inbounds nuw %struct.node_record, ptr %32, i32 0, i32 44
  %34 = load i32, ptr %33, align 8
  %35 = and i32 %34, 15
  %36 = icmp eq i32 %35, 6
  br i1 %36, label %37, label %38

37:                                               ; preds = %31
  br label %100

38:                                               ; preds = %31
  %39 = load ptr, ptr %6, align 8
  %40 = getelementptr inbounds nuw %struct.node_record, ptr %39, i32 0, i32 44
  %41 = load i32, ptr %40, align 8
  %42 = zext i32 %41 to i64
  %43 = and i64 %42, 128
  %44 = icmp ne i64 %43, 0
  br i1 %44, label %45, label %60

45:                                               ; preds = %38
  %46 = load ptr, ptr %6, align 8
  %47 = getelementptr inbounds nuw %struct.node_record, ptr %46, i32 0, i32 44
  %48 = load i32, ptr %47, align 8
  %49 = zext i32 %48 to i64
  %50 = and i64 %49, 4096
  %51 = icmp ne i64 %50, 0
  br i1 %51, label %59, label %52

52:                                               ; preds = %45
  %53 = load ptr, ptr %6, align 8
  %54 = getelementptr inbounds nuw %struct.node_record, ptr %53, i32 0, i32 44
  %55 = load i32, ptr %54, align 8
  %56 = zext i32 %55 to i64
  %57 = and i64 %56, 262144
  %58 = icmp ne i64 %57, 0
  br i1 %58, label %59, label %60

59:                                               ; preds = %52, %45
  br label %100

60:                                               ; preds = %52, %38
  %61 = load ptr, ptr %5, align 8
  %62 = getelementptr inbounds nuw %struct.agent_arg_t, ptr %61, i32 0, i32 6
  %63 = load i16, ptr %62, align 8
  %64 = zext i16 %63 to i32
  %65 = load ptr, ptr @node_record_table_ptr, align 8
  %66 = load ptr, ptr %6, align 8
  %67 = getelementptr inbounds nuw %struct.node_record, ptr %66, i32 0, i32 29
  %68 = load i32, ptr %67, align 8
  %69 = zext i32 %68 to i64
  %70 = getelementptr inbounds nuw ptr, ptr %65, i64 %69
  %71 = load ptr, ptr %70, align 8
  %72 = getelementptr inbounds nuw %struct.node_record, ptr %71, i32 0, i32 53
  %73 = load i16, ptr %72, align 8
  %74 = zext i16 %73 to i32
  %75 = icmp sgt i32 %64, %74
  br i1 %75, label %76, label %88

76:                                               ; preds = %60
  %77 = load ptr, ptr @node_record_table_ptr, align 8
  %78 = load ptr, ptr %6, align 8
  %79 = getelementptr inbounds nuw %struct.node_record, ptr %78, i32 0, i32 29
  %80 = load i32, ptr %79, align 8
  %81 = zext i32 %80 to i64
  %82 = getelementptr inbounds nuw ptr, ptr %77, i64 %81
  %83 = load ptr, ptr %82, align 8
  %84 = getelementptr inbounds nuw %struct.node_record, ptr %83, i32 0, i32 53
  %85 = load i16, ptr %84, align 8
  %86 = load ptr, ptr %5, align 8
  %87 = getelementptr inbounds nuw %struct.agent_arg_t, ptr %86, i32 0, i32 6
  store i16 %85, ptr %87, align 8
  br label %88

88:                                               ; preds = %76, %60
  %89 = load ptr, ptr %5, align 8
  %90 = getelementptr inbounds nuw %struct.agent_arg_t, ptr %89, i32 0, i32 5
  %91 = load ptr, ptr %90, align 8
  %92 = load ptr, ptr %6, align 8
  %93 = getelementptr inbounds nuw %struct.node_record, ptr %92, i32 0, i32 37
  %94 = load ptr, ptr %93, align 8
  %95 = call i32 @hostlist_push_host(ptr noundef %91, ptr noundef %94)
  %96 = load ptr, ptr %5, align 8
  %97 = getelementptr inbounds nuw %struct.agent_arg_t, ptr %96, i32 0, i32 0
  %98 = load i32, ptr %97, align 8
  %99 = add i32 %98, 1
  store i32 %99, ptr %97, align 8
  br label %100

100:                                              ; preds = %88, %59, %37
  %101 = load i32, ptr %3, align 4
  %102 = add nsw i32 %101, 1
  store i32 %102, ptr %3, align 4
  br label %28, !llvm.loop !39

103:                                              ; preds = %28
  %104 = load ptr, ptr %5, align 8
  %105 = getelementptr inbounds nuw %struct.agent_arg_t, ptr %104, i32 0, i32 0
  %106 = load i32, ptr %105, align 8
  %107 = icmp eq i32 %106, 0
  br i1 %107, label %108, label %112

108:                                              ; preds = %103
  %109 = load ptr, ptr %5, align 8
  %110 = getelementptr inbounds nuw %struct.agent_arg_t, ptr %109, i32 0, i32 5
  %111 = load ptr, ptr %110, align 8
  call void @hostlist_destroy(ptr noundef %111)
  call void @slurm_xfree(ptr noundef %5)
  br label %128

112:                                              ; preds = %103
  br label %113

113:                                              ; preds = %112
  br label %114

114:                                              ; preds = %113
  %115 = call i32 @get_log_level()
  %116 = icmp sge i32 %115, 5
  br i1 %116, label %117, label %121

117:                                              ; preds = %114
  %118 = load i32, ptr %2, align 4
  %119 = trunc i32 %118 to i16
  %120 = call ptr @rpc_num2string(i16 noundef zeroext %119)
  call void (i32, ptr, ...) @log_var(i32 noundef 5, ptr noundef @.str.112, ptr noundef %120)
  br label %121

121:                                              ; preds = %117, %114
  br label %122

122:                                              ; preds = %121
  br label %123

123:                                              ; preds = %122
  br label %124

124:                                              ; preds = %123
  br label %125

125:                                              ; preds = %124
  %126 = load ptr, ptr %5, align 8
  call void @set_agent_arg_r_uid(ptr noundef %126, i32 noundef -1)
  %127 = load ptr, ptr %5, align 8
  call void @agent_queue_request(ptr noundef %127)
  br label %128

128:                                              ; preds = %125, %108
  call void @llvm.lifetime.end.p0(i64 8, ptr %6) #10
  call void @llvm.lifetime.end.p0(i64 8, ptr %5) #10
  call void @llvm.lifetime.end.p0(i64 8, ptr %4) #10
  call void @llvm.lifetime.end.p0(i64 4, ptr %3) #10
  ret void
}