; Function Attrs: nounwind uwtable
define dso_local void @msg_to_slurmd(i32 noundef %0) local_unnamed_addr #0 {
  %2 = alloca i32, align 4
  %3 = alloca ptr, align 8
  call void @llvm.lifetime.start.p0(i64 4, ptr nonnull %2) #15
  call void @llvm.lifetime.start.p0(i64 8, ptr nonnull %3) #15
  %4 = tail call ptr @slurm_xcalloc(i64 noundef 1, i64 noundef 56, i1 noundef zeroext true, i1 noundef zeroext false, ptr noundef nonnull @.str.111, i32 noundef 4251, ptr noundef nonnull @__func__.msg_to_slurmd) #15
  store ptr %4, ptr %3, align 8
  %5 = getelementptr inbounds nuw i8, ptr %4, i64 36
  store i32 %0, ptr %5, align 4
  %6 = getelementptr inbounds nuw i8, ptr %4, i64 4
  store i16 0, ptr %6, align 4
  %7 = tail call ptr @hostlist_create(ptr noundef null) #15
  %8 = getelementptr inbounds nuw i8, ptr %4, i64 24
  store ptr %7, ptr %8, align 8
  %9 = icmp eq i32 %0, 1005
  br i1 %9, label %10, label %13

10:                                               ; preds = %1
  %11 = tail call ptr @slurm_xcalloc(i64 noundef 1, i64 noundef 2, i1 noundef zeroext true, i1 noundef zeroext false, ptr noundef nonnull @.str.111, i32 noundef 4256, ptr noundef nonnull @__func__.msg_to_slurmd) #15
  store i16 0, ptr %11, align 2
  %12 = getelementptr inbounds nuw i8, ptr %4, i64 40
  store ptr %11, ptr %12, align 8
  br label %13

13:                                               ; preds = %10, %1
  %14 = getelementptr inbounds nuw i8, ptr %4, i64 32
  store i16 11008, ptr %14, align 8
  store i32 0, ptr %2, align 4
  %15 = call ptr @next_node(ptr noundef nonnull %2) #15
  %.not15 = icmp eq ptr %15, null
  br i1 %.not15, label %._crit_edge, label %.lr.ph.preheader

.lr.ph.preheader:                                 ; preds = %13
  %16 = getelementptr inbounds nuw i8, ptr %4, i64 32
  %17 = getelementptr inbounds nuw i8, ptr %4, i64 24
  br label %.lr.ph

.lr.ph:                                           ; preds = %.lr.ph.preheader, %46
  %18 = phi ptr [ %49, %46 ], [ %15, %.lr.ph.preheader ]
  %19 = getelementptr inbounds nuw i8, ptr %18, i64 320
  %20 = load i32, ptr %19, align 8
  %21 = and i32 %20, 15
  %22 = icmp eq i32 %21, 6
  br i1 %22, label %46, label %23

23:                                               ; preds = %.lr.ph
  %24 = zext i32 %20 to i64
  %25 = and i64 %24, 128
  %.not11 = icmp eq i64 %25, 0
  %26 = and i64 %24, 266240
  %or.cond = icmp eq i64 %26, 0
  %or.cond14 = or i1 %.not11, %or.cond
  br i1 %or.cond14, label %27, label %46

27:                                               ; preds = %23
  %28 = load i16, ptr %16, align 8
  %29 = load ptr, ptr @node_record_table_ptr, align 8
  %30 = getelementptr inbounds nuw i8, ptr %18, i64 208
  %31 = load i32, ptr %30, align 8
  %32 = zext i32 %31 to i64
  %33 = getelementptr inbounds nuw ptr, ptr %29, i64 %32
  %34 = load ptr, ptr %33, align 8
  %35 = getelementptr inbounds nuw i8, ptr %34, i64 368
  %36 = load i16, ptr %35, align 8
  %37 = icmp ugt i16 %28, %36
  br i1 %37, label %38, label %39

38:                                               ; preds = %27
  store i16 %36, ptr %16, align 8
  br label %39

39:                                               ; preds = %38, %27
  %40 = load ptr, ptr %17, align 8
  %41 = getelementptr inbounds nuw i8, ptr %18, i64 272
  %42 = load ptr, ptr %41, align 8
  %43 = call i32 @hostlist_push_host(ptr noundef %40, ptr noundef %42) #15
  %44 = load i32, ptr %4, align 8
  %45 = add i32 %44, 1
  store i32 %45, ptr %4, align 8
  br label %46

46:                                               ; preds = %23, %.lr.ph, %39
  %47 = load i32, ptr %2, align 4
  %48 = add nsw i32 %47, 1
  store i32 %48, ptr %2, align 4
  %49 = call ptr @next_node(ptr noundef nonnull %2) #15
  %.not = icmp eq ptr %49, null
  br i1 %.not, label %._crit_edge, label %.lr.ph, !llvm.loop !38

._crit_edge:                                      ; preds = %46, %13
  %50 = load i32, ptr %4, align 8
  %51 = icmp eq i32 %50, 0
  br i1 %51, label %52, label %54

52:                                               ; preds = %._crit_edge
  %53 = load ptr, ptr %8, align 8
  call void @hostlist_destroy(ptr noundef %53) #15
  call void @slurm_xfree(ptr noundef nonnull %3) #15
  br label %61

54:                                               ; preds = %._crit_edge
  %55 = call i32 @get_log_level() #15
  %56 = icmp sgt i32 %55, 4
  br i1 %56, label %57, label %60

57:                                               ; preds = %54
  %58 = trunc i32 %0 to i16
  %59 = call ptr @rpc_num2string(i16 noundef zeroext %58) #15
  call void (i32, ptr, ...) @log_var(i32 noundef 5, ptr noundef nonnull @.str.112, ptr noundef %59) #15
  br label %60

60:                                               ; preds = %57, %54
  call void @set_agent_arg_r_uid(ptr noundef nonnull %4, i32 noundef -1) #15
  call void @agent_queue_request(ptr noundef nonnull %4) #15
  br label %61

61:                                               ; preds = %60, %52
  call void @llvm.lifetime.end.p0(i64 8, ptr nonnull %3) #15
  call void @llvm.lifetime.end.p0(i64 4, ptr nonnull %2) #15
  ret void
}